; Function Attrs: mustprogress nofree norecurse nosync nounwind sspstrong willreturn memory(read, argmem: none, inaccessiblemem: none) uwtable
define dso_local range(i32 -2147483648, 256) i32 @target_to_host_signal(i32 noundef %sig) local_unnamed_addr #0 {
entry:
  %cmp = icmp slt i32 %sig, 1
  br i1 %cmp, label %return, label %if.end

if.end:                                           ; preds = %entry
  %cmp1 = icmp samesign ugt i32 %sig, 64
  br i1 %cmp1, label %return, label %if.end3

if.end3:                                          ; preds = %if.end
  %idxprom = zext nneg i32 %sig to i64
  %arrayidx = getelementptr [65 x i8], ptr @target_to_host_signal_table, i64 0, i64 %idxprom
  %0 = load i8, ptr %arrayidx, align 1
  %conv = zext i8 %0 to i32
  br label %return

return:                                           ; preds = %if.end, %entry, %if.end3
  %retval.0 = phi i32 [ %conv, %if.end3 ], [ %sig, %entry ], [ 65, %if.end ]
  ret i32 %retval.0
}